; ModuleID = '53/635.c'
source_filename = "53/635.c"
target datalayout = "e-m:e-p270:32:32-p271:32:32-p272:64:64-i64:64-f80:128-n8:16:32:64-S128"
target triple = "x86_64-pc-linux-gnu"

@.str = private unnamed_addr constant [3 x i8] c"%d\00", align 1
@.str.1 = private unnamed_addr constant [4 x i8] c"%d,\00", align 1

; Function Attrs: noinline nounwind uwtable
define dso_local void @main() #0 {
  %1 = alloca i32, align 4
  %2 = alloca i32, align 4
  %3 = alloca i32, align 4
  %4 = alloca i32, align 4
  %5 = alloca [300 x i32], align 16
  %6 = alloca [300 x i32], align 16
  %7 = alloca i32*, align 8
  store i32 0, i32* %4, align 4
  %8 = getelementptr inbounds [300 x i32], [300 x i32]* %6, i64 0, i64 0
  store i32* %8, i32** %7, align 8
  %9 = call i32 (i8*, ...) @__isoc99_scanf(i8* getelementptr inbounds ([3 x i8], [3 x i8]* @.str, i64 0, i64 0), i32* %1)
  store i32 0, i32* %2, align 4
  br label %10

10:                                               ; preds = %19, %0
  %11 = load i32, i32* %2, align 4
  %12 = load i32, i32* %1, align 4
  %13 = icmp slt i32 %11, %12
  br i1 %13, label %14, label %22

14:                                               ; preds = %10
  %15 = load i32, i32* %2, align 4
  %16 = sext i32 %15 to i64
  %17 = getelementptr inbounds [300 x i32], [300 x i32]* %5, i64 0, i64 %16
  %18 = call i32 (i8*, ...) @__isoc99_scanf(i8* getelementptr inbounds ([3 x i8], [3 x i8]* @.str, i64 0, i64 0), i32* %17)
  br label %19

19:                                               ; preds = %14
  %20 = load i32, i32* %2, align 4
  %21 = add nsw i32 %20, 1
  store i32 %21, i32* %2, align 4
  br label %10

22:                                               ; preds = %10
  %23 = getelementptr inbounds [300 x i32], [300 x i32]* %5, i64 0, i64 0
  %24 = load i32, i32* %23, align 16
  %25 = load i32, i32* %4, align 4
  %26 = add nsw i32 %25, 1
  store i32 %26, i32* %4, align 4
  %27 = sext i32 %25 to i64
  %28 = getelementptr inbounds [300 x i32], [300 x i32]* %6, i64 0, i64 %27
  store i32 %24, i32* %28, align 4
  store i32 1, i32* %2, align 4
  br label %29

29:                                               ; preds = %69, %22
  %30 = load i32, i32* %2, align 4
  %31 = load i32, i32* %1, align 4
  %32 = icmp slt i32 %30, %31
  br i1 %32, label %33, label %72

33:                                               ; preds = %29
  store i32 0, i32* %3, align 4
  br label %34

34:                                               ; preds = %65, %33
  %35 = load i32, i32* %3, align 4
  %36 = load i32, i32* %4, align 4
  %37 = icmp slt i32 %35, %36
  br i1 %37, label %38, label %68

38:                                               ; preds = %34
  %39 = load i32, i32* %2, align 4
  %40 = sext i32 %39 to i64
  %41 = getelementptr inbounds [300 x i32], [300 x i32]* %5, i64 0, i64 %40
  %42 = load i32, i32* %41, align 4
  %43 = load i32, i32* %3, align 4
  %44 = sext i32 %43 to i64
  %45 = getelementptr inbounds [300 x i32], [300 x i32]* %6, i64 0, i64 %44
  %46 = load i32, i32* %45, align 4
  %47 = icmp eq i32 %42, %46
  br i1 %47, label %48, label %49

48:                                               ; preds = %38
  br label %68

49:                                               ; preds = %38
  %50 = load i32, i32* %3, align 4
  %51 = load i32, i32* %4, align 4
  %52 = sub nsw i32 %51, 1
  %53 = icmp eq i32 %50, %52
  br i1 %53, label %54, label %63

54:                                               ; preds = %49
  %55 = load i32, i32* %2, align 4
  %56 = sext i32 %55 to i64
  %57 = getelementptr inbounds [300 x i32], [300 x i32]* %5, i64 0, i64 %56
  %58 = load i32, i32* %57, align 4
  %59 = load i32, i32* %4, align 4
  %60 = add nsw i32 %59, 1
  store i32 %60, i32* %4, align 4
  %61 = sext i32 %59 to i64
  %62 = getelementptr inbounds [300 x i32], [300 x i32]* %6, i64 0, i64 %61
  store i32 %58, i32* %62, align 4
  br label %63

63:                                               ; preds = %54, %49
  br label %64

64:                                               ; preds = %63
  br label %65

65:                                               ; preds = %64
  %66 = load i32, i32* %3, align 4
  %67 = add nsw i32 %66, 1
  store i32 %67, i32* %3, align 4
  br label %34

68:                                               ; preds = %48, %34
  br label %69

69:                                               ; preds = %68
  %70 = load i32, i32* %2, align 4
  %71 = add nsw i32 %70, 1
  store i32 %71, i32* %2, align 4
  br label %29

72:                                               ; preds = %29
  store i32 0, i32* %3, align 4
  br label %73

73:                                               ; preds = %85, %72
  %74 = load i32, i32* %3, align 4
  %75 = load i32, i32* %4, align 4
  %76 = sub nsw i32 %75, 1
  %77 = icmp slt i32 %74, %76
  br i1 %77, label %78, label %88

78:                                               ; preds = %73
  %79 = load i32*, i32** %7, align 8
  %80 = load i32, i32* %3, align 4
  %81 = sext i32 %80 to i64
  %82 = getelementptr inbounds i32, i32* %79, i64 %81
  %83 = load i32, i32* %82, align 4
  %84 = call i32 (i8*, ...) @printf(i8* getelementptr inbounds ([4 x i8], [4 x i8]* @.str.1, i64 0, i64 0), i32 %83)
  br label %85

85:                                               ; preds = %78
  %86 = load i32, i32* %3, align 4
  %87 = add nsw i32 %86, 1
  store i32 %87, i32* %3, align 4
  br label %73

88:                                               ; preds = %73
  %89 = load i32*, i32** %7, align 8
  %90 = load i32, i32* %4, align 4
  %91 = sext i32 %90 to i64
  %92 = getelementptr inbounds i32, i32* %89, i64 %91
  %93 = getelementptr inbounds i32, i32* %92, i64 -1
  %94 = load i32, i32* %93, align 4
  %95 = call i32 (i8*, ...) @printf(i8* getelementptr inbounds ([3 x i8], [3 x i8]* @.str, i64 0, i64 0), i32 %94)
  ret void
}

declare dso_local i32 @__isoc99_scanf(i8*, ...) #1

declare dso_local i32 @printf(i8*, ...) #1


!llvm.module.flags = !{!0}
!llvm.ident = !{!1}

!0 = !{i32 1, !"wchar_size", i32 4}
!1 = !{!"clang version 10.0.0-4ubuntu1 "}
